; Function Attrs: nounwind uwtable
define range(i32 0, 2) i32 @Acb_WireIsTarget(i32 noundef %0, ptr noundef %1) local_unnamed_addr #0 {
  %3 = tail call ptr @Abc_NamStr(ptr noundef %1, i32 noundef %0) #31
  %4 = load i8, ptr %3, align 1
  %5 = icmp eq i8 %4, 116
  br i1 %5, label %6, label %11

6:                                                ; preds = %2
  %7 = getelementptr inbounds nuw i8, ptr %3, i64 1
  %8 = load i8, ptr %7, align 1
  %9 = icmp eq i8 %8, 95
  %10 = zext i1 %9 to i32
  br label %11

11:                                               ; preds = %6, %2
  %12 = phi i32 [ 0, %2 ], [ %10, %6 ]
  ret i32 %12
}